target datalayout = "e-m:e-p270:32:32-p271:32:32-p272:64:64-i64:64-i128:128-f80:128-n8:16:32:64-S128"
target triple = "x86_64-pc-linux-gnu"

%class.C_IStream = type { %"class.Imf_3_4::IStream", ptr }
%"class.Imf_3_4::IStream" = type { ptr, %"class.std::__cxx11::basic_string" }
%"class.std::__cxx11::basic_string" = type { %"struct.std::__cxx11::basic_string<char>::_Alloc_hider", i64, %union.anon }
%"struct.std::__cxx11::basic_string<char>::_Alloc_hider" = type { ptr }
%union.anon = type { i64, [8 x i8] }

@.str = private unnamed_addr constant [24 x i8] c"Unexpected end of file.\00", align 1
@_ZTIN7Iex_3_48InputExcE = external constant ptr

; Function Attrs: mustprogress uwtable
define dso_local noundef zeroext i1 @_ZN9C_IStream4readEPci(ptr noundef nonnull align 8 dereferenceable(48) %0, ptr noundef %1, i32 noundef %2) unnamed_addr #4 align 2 personality ptr @__gxx_personality_v0 {
  %4 = alloca ptr, align 8
  %5 = alloca ptr, align 8
  %6 = alloca i32, align 4
  %7 = alloca ptr, align 8
  %8 = alloca i32, align 4
  store ptr %0, ptr %4, align 8, !tbaa !4
  store ptr %1, ptr %5, align 8, !tbaa !9
  store i32 %2, ptr %6, align 4, !tbaa !11
  %9 = load ptr, ptr %4, align 8
  %10 = load i32, ptr %6, align 4, !tbaa !11
  %11 = load ptr, ptr %5, align 8, !tbaa !9
  %12 = load i32, ptr %6, align 4, !tbaa !11
  %13 = sext i32 %12 to i64
  %14 = getelementptr inbounds nuw %class.C_IStream, ptr %9, i32 0, i32 1
  %15 = load ptr, ptr %14, align 8, !tbaa !13
  %16 = call i64 @fread(ptr noundef %11, i64 noundef 1, i64 noundef %13, ptr noundef %15)
  %17 = trunc i64 %16 to i32
  %18 = icmp ne i32 %10, %17
  br i1 %18, label %19, label %33

19:                                               ; preds = %3
  %20 = getelementptr inbounds nuw %class.C_IStream, ptr %9, i32 0, i32 1
  %21 = load ptr, ptr %20, align 8, !tbaa !13
  %22 = call i32 @ferror(ptr noundef %21) #3
  %23 = icmp ne i32 %22, 0
  br i1 %23, label %24, label %25

24:                                               ; preds = %19
  call void @_ZN7Iex_3_413throwErrnoExcEv()
  br label %32

25:                                               ; preds = %19
  %26 = call ptr @__cxa_allocate_exception(i64 72) #3
  invoke void @_ZN7Iex_3_48InputExcC1EPKc(ptr noundef nonnull align 8 dereferenceable(72) %26, ptr noundef @.str)
          to label %27 unwind label %28

27:                                               ; preds = %25
  call void @__cxa_throw(ptr %26, ptr @_ZTIN7Iex_3_48InputExcE, ptr @_ZN7Iex_3_48InputExcD1Ev) #15
  unreachable

28:                                               ; preds = %25
  %29 = landingpad { ptr, i32 }
          cleanup
  %30 = extractvalue { ptr, i32 } %29, 0
  store ptr %30, ptr %7, align 8
  %31 = extractvalue { ptr, i32 } %29, 1
  store i32 %31, ptr %8, align 4
  call void @__cxa_free_exception(ptr %26) #3
  br label %38

32:                                               ; preds = %24
  br label %33

33:                                               ; preds = %32, %3
  %34 = getelementptr inbounds nuw %class.C_IStream, ptr %9, i32 0, i32 1
  %35 = load ptr, ptr %34, align 8, !tbaa !13
  %36 = call i32 @feof(ptr noundef %35) #3
  %37 = icmp ne i32 %36, 0
  ret i1 %37

38:                                               ; preds = %28
  %39 = load ptr, ptr %7, align 8
  %40 = load i32, ptr %8, align 4
  %41 = insertvalue { ptr, i32 } poison, ptr %39, 0
  %42 = insertvalue { ptr, i32 } %41, i32 %40, 1
  resume { ptr, i32 } %42
}